; ModuleID = 'source-C-CXX/53/1319.c'
source_filename = "source-C-CXX/53/1319.c"
target datalayout = "e-m:e-p270:32:32-p271:32:32-p272:64:64-i64:64-f80:128-n8:16:32:64-S128"
target triple = "x86_64-pc-linux-gnu"

@.str = private unnamed_addr constant [7 x i8] c"%ld%ld\00", align 1
@.str.1 = private unnamed_addr constant [4 x i8] c"%ld\00", align 1

; Function Attrs: nofree nounwind sspstrong uwtable
define dso_local void @main() local_unnamed_addr #0 {
  %1 = alloca i64, align 8
  %2 = alloca i64, align 8
  %3 = bitcast i64* %1 to i8*
  call void @llvm.lifetime.start.p0i8(i64 8, i8* nonnull %3) #3
  %4 = bitcast i64* %2 to i8*
  call void @llvm.lifetime.start.p0i8(i64 8, i8* nonnull %4) #3
  %5 = call i32 (i8*, ...) @__isoc99_scanf(i8* getelementptr inbounds ([7 x i8], [7 x i8]* @.str, i64 0, i64 0), i64* nonnull %1, i64* nonnull %2)
  %6 = load i64, i64* %1, align 8, !tbaa !5
  %7 = load i64, i64* %2, align 8, !tbaa !5
  %8 = add nsw i64 %6, -1
  %9 = add nsw i64 %6, %7
  %10 = icmp slt i64 %6, 2
  br i1 %10, label %26, label %11

11:                                               ; preds = %0, %11
  %12 = phi i64 [ %24, %11 ], [ %9, %0 ]
  %13 = phi i64 [ %21, %11 ], [ 2, %0 ]
  %14 = phi i64 [ %23, %11 ], [ 2, %0 ]
  %15 = srem i64 %12, %8
  %16 = sdiv i64 %12, %8
  %17 = icmp eq i64 %15, 0
  %18 = add nsw i64 %13, 1
  %19 = select i1 %17, i64 %16, i64 %13
  %20 = select i1 %17, i64 %14, i64 1
  %21 = select i1 %17, i64 %13, i64 %18
  %22 = mul nsw i64 %19, %6
  %23 = add nsw i64 %20, 1
  %24 = add nsw i64 %22, %7
  %25 = icmp slt i64 %20, %6
  br i1 %25, label %11, label %26, !llvm.loop !9

26:                                               ; preds = %11, %0
  %27 = phi i64 [ %9, %0 ], [ %24, %11 ]
  %28 = call i32 (i8*, ...) @printf(i8* nonnull dereferenceable(1) getelementptr inbounds ([4 x i8], [4 x i8]* @.str.1, i64 0, i64 0), i64 %27)
  call void @llvm.lifetime.end.p0i8(i64 8, i8* nonnull %4) #3
  call void @llvm.lifetime.end.p0i8(i64 8, i8* nonnull %3) #3
  ret void
}

; Function Attrs: argmemonly mustprogress nofree nosync nounwind willreturn
declare void @llvm.lifetime.start.p0i8(i64 immarg, i8* nocapture) #1

; Function Attrs: nofree nounwind
declare noundef i32 @__isoc99_scanf(i8* nocapture noundef readonly, ...) local_unnamed_addr #2

; Function Attrs: nofree nounwind
declare noundef i32 @printf(i8* nocapture noundef readonly, ...) local_unnamed_addr #2

; Function Attrs: argmemonly mustprogress nofree nosync nounwind willreturn
declare void @llvm.lifetime.end.p0i8(i64 immarg, i8* nocapture) #1


!llvm.module.flags = !{!0, !1, !2, !3}
!llvm.ident = !{!4}

!0 = !{i32 1, !"wchar_size", i32 4}
!1 = !{i32 7, !"PIC Level", i32 2}
!2 = !{i32 7, !"PIE Level", i32 2}
!3 = !{i32 7, !"uwtable", i32 1}
!4 = !{!"clang version 13.0.0"}
!5 = !{!6, !6, i64 0}
!6 = !{!"long", !7, i64 0}
!7 = !{!"omnipotent char", !8, i64 0}
!8 = !{!"Simple C/C++ TBAA"}
!9 = distinct !{!9, !10}
!10 = !{!"llvm.loop.mustprogress"}
